target datalayout = "e-m:e-p270:32:32-p271:32:32-p272:64:64-i64:64-i128:128-f80:128-n8:16:32:64-S128"
target triple = "x86_64-pc-linux-gnu"

%"class.google::protobuf::io::FileInputStream::CopyingFileInputStream" = type <{ %"class.google::protobuf::io::CopyingInputStream", i32, i8, i8, [2 x i8], i32, i8, [3 x i8] }>
%"class.google::protobuf::io::CopyingInputStream" = type { ptr }
%"class.google::protobuf::internal::LogMessage" = type { i32, ptr, i32, %"class.std::__cxx11::basic_string" }
%"class.std::__cxx11::basic_string" = type { %"struct.std::__cxx11::basic_string<char>::_Alloc_hider", i64, %union.anon }
%"struct.std::__cxx11::basic_string<char>::_Alloc_hider" = type { ptr }
%union.anon = type { i64, [8 x i8] }
%"class.google::protobuf::internal::LogFinisher" = type { i8 }

@.str = private unnamed_addr constant [51 x i8] c"third_party/protobuf-lite/zero_copy_stream_impl.cc\00", align 1
@.str.2 = private unnamed_addr constant [28 x i8] c"CHECK failed: !is_closed_: \00", align 1

; Function Attrs: mustprogress uwtable
define noundef i32 @_ZN6google8protobuf2io15FileInputStream22CopyingFileInputStream4SkipEi(ptr noundef nonnull align 8 dereferenceable(21) %0, i32 noundef %1) unnamed_addr #4 align 2 personality ptr @__gxx_personality_v0 {
  %3 = alloca i32, align 4
  %4 = alloca ptr, align 8
  %5 = alloca i32, align 4
  %6 = alloca %"class.google::protobuf::internal::LogMessage", align 8
  %7 = alloca i1, align 1
  %8 = alloca ptr, align 8
  %9 = alloca i32, align 4
  %10 = alloca %"class.google::protobuf::internal::LogFinisher", align 1
  store ptr %0, ptr %4, align 8
  store i32 %1, ptr %5, align 4
  %11 = load ptr, ptr %4, align 8
  %12 = getelementptr inbounds %"class.google::protobuf::io::FileInputStream::CopyingFileInputStream", ptr %11, i32 0, i32 3
  %13 = load i8, ptr %12, align 1
  %14 = trunc i8 %13 to i1
  store i1 false, ptr %7, align 1
  br i1 %14, label %16, label %15

15:                                               ; preds = %2
  br label %20

16:                                               ; preds = %2
  call void @_ZN6google8protobuf8internal10LogMessageC1ENS0_8LogLevelEPKci(ptr noundef nonnull align 8 dereferenceable(56) %6, i32 noundef 3, ptr noundef @.str, i32 noundef 148)
  store i1 true, ptr %7, align 1
  %17 = invoke noundef nonnull align 8 dereferenceable(56) ptr @_ZN6google8protobuf8internal10LogMessagelsEPKc(ptr noundef nonnull align 8 dereferenceable(56) %6, ptr noundef @.str.2)
          to label %18 unwind label %36

18:                                               ; preds = %16
  invoke void @_ZN6google8protobuf8internal11LogFinisheraSERNS1_10LogMessageE(ptr noundef nonnull align 1 dereferenceable(1) %10, ptr noundef nonnull align 8 dereferenceable(56) %17)
          to label %19 unwind label %36

19:                                               ; preds = %18
  br label %20

20:                                               ; preds = %19, %15
  %21 = load i1, ptr %7, align 1
  br i1 %21, label %22, label %23

22:                                               ; preds = %20
  call void @_ZN6google8protobuf8internal10LogMessageD1Ev(ptr noundef nonnull align 8 dereferenceable(56) %6) #3
  br label %23

23:                                               ; preds = %22, %20
  %24 = getelementptr inbounds %"class.google::protobuf::io::FileInputStream::CopyingFileInputStream", ptr %11, i32 0, i32 6
  %25 = load i8, ptr %24, align 4
  %26 = trunc i8 %25 to i1
  br i1 %26, label %43, label %27

27:                                               ; preds = %23
  %28 = getelementptr inbounds %"class.google::protobuf::io::FileInputStream::CopyingFileInputStream", ptr %11, i32 0, i32 1
  %29 = load i32, ptr %28, align 8
  %30 = load i32, ptr %5, align 4
  %31 = sext i32 %30 to i64
  %32 = call i64 @lseek(i32 noundef %29, i64 noundef %31, i32 noundef 1) #3
  %33 = icmp ne i64 %32, -1
  br i1 %33, label %34, label %43

34:                                               ; preds = %27
  %35 = load i32, ptr %5, align 4
  store i32 %35, ptr %3, align 4
  br label %47

36:                                               ; preds = %18, %16
  %37 = landingpad { ptr, i32 }
          cleanup
  %38 = extractvalue { ptr, i32 } %37, 0
  store ptr %38, ptr %8, align 8
  %39 = extractvalue { ptr, i32 } %37, 1
  store i32 %39, ptr %9, align 4
  %40 = load i1, ptr %7, align 1
  br i1 %40, label %41, label %42

41:                                               ; preds = %36
  call void @_ZN6google8protobuf8internal10LogMessageD1Ev(ptr noundef nonnull align 8 dereferenceable(56) %6) #3
  br label %42

42:                                               ; preds = %41, %36
  br label %49

43:                                               ; preds = %27, %23
  %44 = getelementptr inbounds %"class.google::protobuf::io::FileInputStream::CopyingFileInputStream", ptr %11, i32 0, i32 6
  store i8 1, ptr %44, align 4
  %45 = load i32, ptr %5, align 4
  %46 = call noundef i32 @_ZN6google8protobuf2io18CopyingInputStream4SkipEi(ptr noundef nonnull align 8 dereferenceable(8) %11, i32 noundef %45)
  store i32 %46, ptr %3, align 4
  br label %47

47:                                               ; preds = %43, %34
  %48 = load i32, ptr %3, align 4
  ret i32 %48

49:                                               ; preds = %42
  %50 = load ptr, ptr %8, align 8
  %51 = load i32, ptr %9, align 4
  %52 = insertvalue { ptr, i32 } poison, ptr %50, 0
  %53 = insertvalue { ptr, i32 } %52, i32 %51, 1
  resume { ptr, i32 } %53
}