; Function Attrs: mustprogress uwtable
define noundef i32 @_ZN6google8protobuf2io15FileInputStream22CopyingFileInputStream4SkipEi(ptr noundef nonnull align 8 dereferenceable(21) %0, i32 noundef %1) unnamed_addr #3 align 2 personality ptr @__gxx_personality_v0 {
  %3 = alloca %"class.google::protobuf::internal::LogMessage", align 8
  %4 = alloca %"class.google::protobuf::internal::LogFinisher", align 1
  %5 = getelementptr inbounds i8, ptr %0, i64 13
  %6 = load i8, ptr %5, align 1
  %7 = trunc i8 %6 to i1
  br i1 %7, label %8, label %.critedge

8:                                                ; preds = %2
  call void @_ZN6google8protobuf8internal10LogMessageC1ENS0_8LogLevelEPKci(ptr noundef nonnull align 8 dereferenceable(56) %3, i32 noundef 3, ptr noundef nonnull @.str, i32 noundef 148)
  %9 = invoke noundef nonnull align 8 dereferenceable(56) ptr @_ZN6google8protobuf8internal10LogMessagelsEPKc(ptr noundef nonnull align 8 dereferenceable(56) %3, ptr noundef nonnull @.str.2)
          to label %10 unwind label %20

10:                                               ; preds = %8
  invoke void @_ZN6google8protobuf8internal11LogFinisheraSERNS1_10LogMessageE(ptr noundef nonnull align 1 dereferenceable(1) %4, ptr noundef nonnull align 8 dereferenceable(56) %9)
          to label %11 unwind label %20

11:                                               ; preds = %10
  call void @_ZN6google8protobuf8internal10LogMessageD1Ev(ptr noundef nonnull align 8 dereferenceable(56) %3) #12
  br label %.critedge

.critedge:                                        ; preds = %2, %11
  %12 = getelementptr inbounds i8, ptr %0, i64 20
  %13 = load i8, ptr %12, align 4
  %14 = trunc i8 %13 to i1
  br i1 %14, label %22, label %15

15:                                               ; preds = %.critedge
  %16 = getelementptr inbounds i8, ptr %0, i64 8
  %17 = load i32, ptr %16, align 8
  %18 = sext i32 %1 to i64
  %19 = call i64 @lseek(i32 noundef %17, i64 noundef %18, i32 noundef 1) #12
  %.not = icmp eq i64 %19, -1
  br i1 %.not, label %22, label %24

20:                                               ; preds = %10, %8
  %21 = landingpad { ptr, i32 }
          cleanup
  call void @_ZN6google8protobuf8internal10LogMessageD1Ev(ptr noundef nonnull align 8 dereferenceable(56) %3) #12
  resume { ptr, i32 } %21

22:                                               ; preds = %15, %.critedge
  store i8 1, ptr %12, align 4
  %23 = call noundef i32 @_ZN6google8protobuf2io18CopyingInputStream4SkipEi(ptr noundef nonnull align 8 dereferenceable(8) %0, i32 noundef %1)
  br label %24

24:                                               ; preds = %15, %22
  %.0 = phi i32 [ %23, %22 ], [ %1, %15 ]
  ret i32 %.0
}